target datalayout = "e-m:e-p270:32:32-p271:32:32-p272:64:64-i64:64-i128:128-f80:128-n8:16:32:64-S128"
target triple = "x86_64-pc-linux-gnu"

@ff_mpeg4_DCtab_lum = external constant [13 x [2 x i8]], align 16
@ff_v2_dc_lum_table = external hidden global [512 x [2 x i32]], align 16
@ff_mpeg4_DCtab_chrom = external constant [13 x [2 x i8]], align 16
@ff_v2_dc_chroma_table = external hidden global [512 x [2 x i32]], align 16

; Function Attrs: cold nounwind optsize uwtable
define internal void @init_h263_dc_for_msmpeg4() #0 {
  %1 = alloca i32, align 4
  %2 = alloca i32, align 4
  %3 = alloca i32, align 4
  %4 = alloca i32, align 4
  %5 = alloca i32, align 4
  %6 = alloca i32, align 4
  call void @llvm.lifetime.start.p0(i64 4, ptr %1) #5
  store i32 -256, ptr %1, align 4, !tbaa !41
  br label %7

7:                                                ; preds = %139, %0
  %8 = load i32, ptr %1, align 4, !tbaa !41
  %9 = icmp slt i32 %8, 256
  br i1 %9, label %11, label %10

10:                                               ; preds = %7
  call void @llvm.lifetime.end.p0(i64 4, ptr %1) #5
  br label %142

11:                                               ; preds = %7
  call void @llvm.lifetime.start.p0(i64 4, ptr %2) #5
  call void @llvm.lifetime.start.p0(i64 4, ptr %3) #5
  call void @llvm.lifetime.start.p0(i64 4, ptr %4) #5
  call void @llvm.lifetime.start.p0(i64 4, ptr %5) #5
  call void @llvm.lifetime.start.p0(i64 4, ptr %6) #5
  store i32 0, ptr %4, align 4, !tbaa !41
  %12 = load i32, ptr %1, align 4, !tbaa !41
  %13 = call i32 @llvm.abs.i32(i32 %12, i1 true)
  store i32 %13, ptr %5, align 4, !tbaa !41
  br label %14

14:                                               ; preds = %17, %11
  %15 = load i32, ptr %5, align 4, !tbaa !41
  %16 = icmp ne i32 %15, 0
  br i1 %16, label %17, label %22

17:                                               ; preds = %14
  %18 = load i32, ptr %5, align 4, !tbaa !41
  %19 = ashr i32 %18, 1
  store i32 %19, ptr %5, align 4, !tbaa !41
  %20 = load i32, ptr %4, align 4, !tbaa !41
  %21 = add nsw i32 %20, 1
  store i32 %21, ptr %4, align 4, !tbaa !41
  br label %14, !llvm.loop !81

22:                                               ; preds = %14
  %23 = load i32, ptr %1, align 4, !tbaa !41
  %24 = icmp slt i32 %23, 0
  br i1 %24, label %25, label %32

25:                                               ; preds = %22
  %26 = load i32, ptr %1, align 4, !tbaa !41
  %27 = sub nsw i32 0, %26
  %28 = load i32, ptr %4, align 4, !tbaa !41
  %29 = shl i32 1, %28
  %30 = sub nsw i32 %29, 1
  %31 = xor i32 %27, %30
  store i32 %31, ptr %6, align 4, !tbaa !41
  br label %34

32:                                               ; preds = %22
  %33 = load i32, ptr %1, align 4, !tbaa !41
  store i32 %33, ptr %6, align 4, !tbaa !41
  br label %34

34:                                               ; preds = %32, %25
  %35 = load i32, ptr %4, align 4, !tbaa !41
  %36 = sext i32 %35 to i64
  %37 = getelementptr inbounds [13 x [2 x i8]], ptr @ff_mpeg4_DCtab_lum, i64 0, i64 %36
  %38 = getelementptr inbounds [2 x i8], ptr %37, i64 0, i64 0
  %39 = load i8, ptr %38, align 2, !tbaa !49
  %40 = zext i8 %39 to i32
  store i32 %40, ptr %2, align 4, !tbaa !41
  %41 = load i32, ptr %4, align 4, !tbaa !41
  %42 = sext i32 %41 to i64
  %43 = getelementptr inbounds [13 x [2 x i8]], ptr @ff_mpeg4_DCtab_lum, i64 0, i64 %42
  %44 = getelementptr inbounds [2 x i8], ptr %43, i64 0, i64 1
  %45 = load i8, ptr %44, align 1, !tbaa !49
  %46 = zext i8 %45 to i32
  store i32 %46, ptr %3, align 4, !tbaa !41
  %47 = load i32, ptr %3, align 4, !tbaa !41
  %48 = shl i32 1, %47
  %49 = sub nsw i32 %48, 1
  %50 = load i32, ptr %2, align 4, !tbaa !41
  %51 = xor i32 %50, %49
  store i32 %51, ptr %2, align 4, !tbaa !41
  %52 = load i32, ptr %4, align 4, !tbaa !41
  %53 = icmp sgt i32 %52, 0
  br i1 %53, label %54, label %74

54:                                               ; preds = %34
  %55 = load i32, ptr %4, align 4, !tbaa !41
  %56 = load i32, ptr %2, align 4, !tbaa !41
  %57 = shl i32 %56, %55
  store i32 %57, ptr %2, align 4, !tbaa !41
  %58 = load i32, ptr %6, align 4, !tbaa !41
  %59 = load i32, ptr %2, align 4, !tbaa !41
  %60 = or i32 %59, %58
  store i32 %60, ptr %2, align 4, !tbaa !41
  %61 = load i32, ptr %4, align 4, !tbaa !41
  %62 = load i32, ptr %3, align 4, !tbaa !41
  %63 = add nsw i32 %62, %61
  store i32 %63, ptr %3, align 4, !tbaa !41
  %64 = load i32, ptr %4, align 4, !tbaa !41
  %65 = icmp sgt i32 %64, 8
  br i1 %65, label %66, label %73

66:                                               ; preds = %54
  %67 = load i32, ptr %2, align 4, !tbaa !41
  %68 = shl i32 %67, 1
  store i32 %68, ptr %2, align 4, !tbaa !41
  %69 = load i32, ptr %2, align 4, !tbaa !41
  %70 = or i32 %69, 1
  store i32 %70, ptr %2, align 4, !tbaa !41
  %71 = load i32, ptr %3, align 4, !tbaa !41
  %72 = add nsw i32 %71, 1
  store i32 %72, ptr %3, align 4, !tbaa !41
  br label %73

73:                                               ; preds = %66, %54
  br label %74

74:                                               ; preds = %73, %34
  %75 = load i32, ptr %2, align 4, !tbaa !41
  %76 = load i32, ptr %1, align 4, !tbaa !41
  %77 = add nsw i32 %76, 256
  %78 = sext i32 %77 to i64
  %79 = getelementptr inbounds [512 x [2 x i32]], ptr @ff_v2_dc_lum_table, i64 0, i64 %78
  %80 = getelementptr inbounds [2 x i32], ptr %79, i64 0, i64 0
  store i32 %75, ptr %80, align 8, !tbaa !41
  %81 = load i32, ptr %3, align 4, !tbaa !41
  %82 = load i32, ptr %1, align 4, !tbaa !41
  %83 = add nsw i32 %82, 256
  %84 = sext i32 %83 to i64
  %85 = getelementptr inbounds [512 x [2 x i32]], ptr @ff_v2_dc_lum_table, i64 0, i64 %84
  %86 = getelementptr inbounds [2 x i32], ptr %85, i64 0, i64 1
  store i32 %81, ptr %86, align 4, !tbaa !41
  %87 = load i32, ptr %4, align 4, !tbaa !41
  %88 = sext i32 %87 to i64
  %89 = getelementptr inbounds [13 x [2 x i8]], ptr @ff_mpeg4_DCtab_chrom, i64 0, i64 %88
  %90 = getelementptr inbounds [2 x i8], ptr %89, i64 0, i64 0
  %91 = load i8, ptr %90, align 2, !tbaa !49
  %92 = zext i8 %91 to i32
  store i32 %92, ptr %2, align 4, !tbaa !41
  %93 = load i32, ptr %4, align 4, !tbaa !41
  %94 = sext i32 %93 to i64
  %95 = getelementptr inbounds [13 x [2 x i8]], ptr @ff_mpeg4_DCtab_chrom, i64 0, i64 %94
  %96 = getelementptr inbounds [2 x i8], ptr %95, i64 0, i64 1
  %97 = load i8, ptr %96, align 1, !tbaa !49
  %98 = zext i8 %97 to i32
  store i32 %98, ptr %3, align 4, !tbaa !41
  %99 = load i32, ptr %3, align 4, !tbaa !41
  %100 = shl i32 1, %99
  %101 = sub nsw i32 %100, 1
  %102 = load i32, ptr %2, align 4, !tbaa !41
  %103 = xor i32 %102, %101
  store i32 %103, ptr %2, align 4, !tbaa !41
  %104 = load i32, ptr %4, align 4, !tbaa !41
  %105 = icmp sgt i32 %104, 0
  br i1 %105, label %106, label %126

106:                                              ; preds = %74
  %107 = load i32, ptr %4, align 4, !tbaa !41
  %108 = load i32, ptr %2, align 4, !tbaa !41
  %109 = shl i32 %108, %107
  store i32 %109, ptr %2, align 4, !tbaa !41
  %110 = load i32, ptr %6, align 4, !tbaa !41
  %111 = load i32, ptr %2, align 4, !tbaa !41
  %112 = or i32 %111, %110
  store i32 %112, ptr %2, align 4, !tbaa !41
  %113 = load i32, ptr %4, align 4, !tbaa !41
  %114 = load i32, ptr %3, align 4, !tbaa !41
  %115 = add nsw i32 %114, %113
  store i32 %115, ptr %3, align 4, !tbaa !41
  %116 = load i32, ptr %4, align 4, !tbaa !41
  %117 = icmp sgt i32 %116, 8
  br i1 %117, label %118, label %125

118:                                              ; preds = %106
  %119 = load i32, ptr %2, align 4, !tbaa !41
  %120 = shl i32 %119, 1
  store i32 %120, ptr %2, align 4, !tbaa !41
  %121 = load i32, ptr %2, align 4, !tbaa !41
  %122 = or i32 %121, 1
  store i32 %122, ptr %2, align 4, !tbaa !41
  %123 = load i32, ptr %3, align 4, !tbaa !41
  %124 = add nsw i32 %123, 1
  store i32 %124, ptr %3, align 4, !tbaa !41
  br label %125

125:                                              ; preds = %118, %106
  br label %126

126:                                              ; preds = %125, %74
  %127 = load i32, ptr %2, align 4, !tbaa !41
  %128 = load i32, ptr %1, align 4, !tbaa !41
  %129 = add nsw i32 %128, 256
  %130 = sext i32 %129 to i64
  %131 = getelementptr inbounds [512 x [2 x i32]], ptr @ff_v2_dc_chroma_table, i64 0, i64 %130
  %132 = getelementptr inbounds [2 x i32], ptr %131, i64 0, i64 0
  store i32 %127, ptr %132, align 8, !tbaa !41
  %133 = load i32, ptr %3, align 4, !tbaa !41
  %134 = load i32, ptr %1, align 4, !tbaa !41
  %135 = add nsw i32 %134, 256
  %136 = sext i32 %135 to i64
  %137 = getelementptr inbounds [512 x [2 x i32]], ptr @ff_v2_dc_chroma_table, i64 0, i64 %136
  %138 = getelementptr inbounds [2 x i32], ptr %137, i64 0, i64 1
  store i32 %133, ptr %138, align 4, !tbaa !41
  call void @llvm.lifetime.end.p0(i64 4, ptr %6) #5
  call void @llvm.lifetime.end.p0(i64 4, ptr %5) #5
  call void @llvm.lifetime.end.p0(i64 4, ptr %4) #5
  call void @llvm.lifetime.end.p0(i64 4, ptr %3) #5
  call void @llvm.lifetime.end.p0(i64 4, ptr %2) #5
  br label %139

139:                                              ; preds = %126
  %140 = load i32, ptr %1, align 4, !tbaa !41
  %141 = add nsw i32 %140, 1
  store i32 %141, ptr %1, align 4, !tbaa !41
  br label %7, !llvm.loop !82

142:                                              ; preds = %10
  ret void
}