; Function Attrs: cold nofree norecurse nosync nounwind optsize memory(write, argmem: none, inaccessiblemem: none) uwtable
define internal fastcc void @init_h263_dc_for_msmpeg4() unnamed_addr #5 {
  br label %2

1:                                                ; preds = %51
  ret void

2:                                                ; preds = %0, %51
  %indvars.iv = phi i64 [ -256, %0 ], [ %indvars.iv.next, %51 ]
  %3 = trunc nsw i64 %indvars.iv to i32
  %4 = icmp eq i64 %indvars.iv, 0
  br i1 %4, label %._crit_edge, label %.lr.ph.preheader

.lr.ph.preheader:                                 ; preds = %2
  %5 = tail call i32 @llvm.abs.i32(i32 %3, i1 true)
  br label %.lr.ph

.lr.ph:                                           ; preds = %.lr.ph.preheader, %.lr.ph
  %.04859 = phi i32 [ %6, %.lr.ph ], [ %5, %.lr.ph.preheader ]
  %.04958 = phi i32 [ %7, %.lr.ph ], [ 0, %.lr.ph.preheader ]
  %6 = lshr i32 %.04859, 1
  %7 = add nuw nsw i32 %.04958, 1
  %.not = icmp samesign ult i32 %.04859, 2
  br i1 %.not, label %._crit_edge, label %.lr.ph, !llvm.loop !72

._crit_edge:                                      ; preds = %.lr.ph, %2
  %.049.lcssa = phi i32 [ 0, %2 ], [ %7, %.lr.ph ]
  %8 = icmp slt i64 %indvars.iv, 0
  %notmask = shl nsw i32 -1, %.049.lcssa
  %9 = trunc i64 %indvars.iv to i32
  %10 = add i32 %9, -1
  %11 = xor i32 %notmask, %10
  %.0 = select i1 %8, i32 %11, i32 %3
  %12 = zext nneg i32 %.049.lcssa to i64
  %13 = getelementptr inbounds nuw [13 x [2 x i8]], ptr @ff_mpeg4_DCtab_lum, i64 0, i64 %12
  %14 = load i8, ptr %13, align 2, !tbaa !44
  %15 = zext i8 %14 to i32
  %16 = getelementptr inbounds nuw i8, ptr %13, i64 1
  %17 = load i8, ptr %16, align 1, !tbaa !44
  %18 = zext i8 %17 to i32
  %notmask54 = shl nsw i32 -1, %18
  %19 = xor i32 %notmask54, %15
  %20 = xor i32 %19, -1
  %.not55 = icmp eq i32 %.049.lcssa, 0
  br i1 %.not55, label %30, label %21

21:                                               ; preds = %._crit_edge
  %22 = shl i32 %20, %.049.lcssa
  %23 = or i32 %22, %.0
  %24 = add nuw nsw i32 %.049.lcssa, %18
  %25 = icmp samesign ugt i32 %.049.lcssa, 8
  br i1 %25, label %26, label %30

26:                                               ; preds = %21
  %27 = shl i32 %23, 1
  %28 = or disjoint i32 %27, 1
  %29 = add nuw nsw i32 %24, 1
  br label %30

30:                                               ; preds = %21, %26, %._crit_edge
  %.051 = phi i32 [ %28, %26 ], [ %23, %21 ], [ %20, %._crit_edge ]
  %.050 = phi i32 [ %29, %26 ], [ %24, %21 ], [ %18, %._crit_edge ]
  %31 = add nsw i64 %indvars.iv, 256
  %32 = getelementptr inbounds [512 x [2 x i32]], ptr @ff_v2_dc_lum_table, i64 0, i64 %31
  store i32 %.051, ptr %32, align 8, !tbaa !41
  %33 = getelementptr inbounds nuw i8, ptr %32, i64 4
  store i32 %.050, ptr %33, align 4, !tbaa !41
  %34 = getelementptr inbounds nuw [13 x [2 x i8]], ptr @ff_mpeg4_DCtab_chrom, i64 0, i64 %12
  %35 = load i8, ptr %34, align 2, !tbaa !44
  %36 = zext i8 %35 to i32
  %37 = getelementptr inbounds nuw i8, ptr %34, i64 1
  %38 = load i8, ptr %37, align 1, !tbaa !44
  %39 = zext i8 %38 to i32
  %notmask56 = shl nsw i32 -1, %39
  %40 = xor i32 %notmask56, %36
  %41 = xor i32 %40, -1
  br i1 %.not55, label %51, label %42

42:                                               ; preds = %30
  %43 = shl i32 %41, %.049.lcssa
  %44 = or i32 %43, %.0
  %45 = add nuw nsw i32 %.049.lcssa, %39
  %46 = icmp samesign ugt i32 %.049.lcssa, 8
  br i1 %46, label %47, label %51

47:                                               ; preds = %42
  %48 = shl i32 %44, 1
  %49 = or disjoint i32 %48, 1
  %50 = add nuw nsw i32 %45, 1
  br label %51

51:                                               ; preds = %42, %47, %30
  %.152 = phi i32 [ %49, %47 ], [ %44, %42 ], [ %41, %30 ]
  %.1 = phi i32 [ %50, %47 ], [ %45, %42 ], [ %39, %30 ]
  %52 = getelementptr inbounds [512 x [2 x i32]], ptr @ff_v2_dc_chroma_table, i64 0, i64 %31
  store i32 %.152, ptr %52, align 8, !tbaa !41
  %53 = getelementptr inbounds nuw i8, ptr %52, i64 4
  store i32 %.1, ptr %53, align 4, !tbaa !41
  %indvars.iv.next = add nsw i64 %indvars.iv, 1
  %exitcond.not = icmp eq i64 %indvars.iv.next, 256
  br i1 %exitcond.not, label %1, label %2, !llvm.loop !73
}